; Function Attrs: mustprogress uwtable
define internal fastcc noundef double @_ZNK8QuantLib12_GLOBAL__N_124ImpliedSwaptionVolHelperclEd(ptr nocapture noundef nonnull readonly align 8 dereferenceable(64) %this, double noundef %x) unnamed_addr #9 align 2 {
entry:
  %vol_ = getelementptr inbounds nuw i8, ptr %this, i64 40
  %0 = load ptr, ptr %vol_, align 8, !tbaa !115
  %cmp.not.i = icmp eq ptr %0, null
  br i1 %cmp.not.i, label %cond.false.i, label %_ZNK5boost10shared_ptrIN8QuantLib11SimpleQuoteEEptEv.exit, !prof !74

cond.false.i:                                     ; preds = %entry
  tail call void @_ZN5boost16assertion_failedEPKcS1_S1_l(ptr noundef nonnull @.str.27, ptr noundef nonnull @__PRETTY_FUNCTION__._ZNK5boost10shared_ptrIN8QuantLib11SimpleQuoteEEptEv, ptr noundef nonnull @.str.28, i64 noundef 784)
  %.pre.i = load ptr, ptr %vol_, align 8, !tbaa !115
  br label %_ZNK5boost10shared_ptrIN8QuantLib11SimpleQuoteEEptEv.exit

_ZNK5boost10shared_ptrIN8QuantLib11SimpleQuoteEEptEv.exit: ; preds = %entry, %cond.false.i
  %1 = phi ptr [ %0, %entry ], [ %.pre.i, %cond.false.i ]
  %vtable = load ptr, ptr %1, align 8, !tbaa !33
  %vfn = getelementptr inbounds i8, ptr %vtable, i64 16
  %2 = load ptr, ptr %vfn, align 8
  %call2 = tail call noundef double %2(ptr noundef nonnull align 8 dereferenceable(16) %1)
  %cmp = fcmp une double %x, %call2
  br i1 %cmp, label %if.then, label %if.end

if.then:                                          ; preds = %_ZNK5boost10shared_ptrIN8QuantLib11SimpleQuoteEEptEv.exit
  %3 = load ptr, ptr %vol_, align 8, !tbaa !115
  %cmp.not.i2 = icmp eq ptr %3, null
  br i1 %cmp.not.i2, label %cond.false.i3, label %_ZNK5boost10shared_ptrIN8QuantLib11SimpleQuoteEEptEv.exit5, !prof !74

cond.false.i3:                                    ; preds = %if.then
  tail call void @_ZN5boost16assertion_failedEPKcS1_S1_l(ptr noundef nonnull @.str.27, ptr noundef nonnull @__PRETTY_FUNCTION__._ZNK5boost10shared_ptrIN8QuantLib11SimpleQuoteEEptEv, ptr noundef nonnull @.str.28, i64 noundef 784)
  %.pre.i4 = load ptr, ptr %vol_, align 8, !tbaa !115
  br label %_ZNK5boost10shared_ptrIN8QuantLib11SimpleQuoteEEptEv.exit5

_ZNK5boost10shared_ptrIN8QuantLib11SimpleQuoteEEptEv.exit5: ; preds = %if.then, %cond.false.i3
  %4 = phi ptr [ %3, %if.then ], [ %.pre.i4, %cond.false.i3 ]
  %value_.i = getelementptr inbounds nuw i8, ptr %4, i64 8
  %5 = load double, ptr %value_.i, align 8, !tbaa !48
  %sub.i = fsub double %x, %5
  %cmp.i = fcmp une double %sub.i, 0.000000e+00
  br i1 %cmp.i, label %if.then.i, label %_ZN8QuantLib11SimpleQuote8setValueEd.exit

if.then.i:                                        ; preds = %_ZNK5boost10shared_ptrIN8QuantLib11SimpleQuoteEEptEv.exit5
  store double %x, ptr %value_.i, align 8, !tbaa !48
  %vtable.i = load ptr, ptr %4, align 8, !tbaa !33
  %vbase.offset.ptr.i = getelementptr i8, ptr %vtable.i, i64 -24
  %vbase.offset.i = load i64, ptr %vbase.offset.ptr.i, align 8
  %add.ptr.i = getelementptr inbounds i8, ptr %4, i64 %vbase.offset.i
  tail call void @_ZN8QuantLib10Observable15notifyObserversEv(ptr noundef nonnull align 8 dereferenceable(56) %add.ptr.i)
  br label %_ZN8QuantLib11SimpleQuote8setValueEd.exit

_ZN8QuantLib11SimpleQuote8setValueEd.exit:        ; preds = %_ZNK5boost10shared_ptrIN8QuantLib11SimpleQuoteEEptEv.exit5, %if.then.i
  %6 = load ptr, ptr %this, align 8, !tbaa !124
  %cmp.not.i6 = icmp eq ptr %6, null
  br i1 %cmp.not.i6, label %cond.false.i7, label %_ZNK5boost10shared_ptrIN8QuantLib13PricingEngineEEptEv.exit, !prof !74

cond.false.i7:                                    ; preds = %_ZN8QuantLib11SimpleQuote8setValueEd.exit
  tail call void @_ZN5boost16assertion_failedEPKcS1_S1_l(ptr noundef nonnull @.str.27, ptr noundef nonnull @__PRETTY_FUNCTION__._ZNK5boost10shared_ptrIN8QuantLib13PricingEngineEEptEv, ptr noundef nonnull @.str.28, i64 noundef 784)
  %.pre.i8 = load ptr, ptr %this, align 8, !tbaa !124
  br label %_ZNK5boost10shared_ptrIN8QuantLib13PricingEngineEEptEv.exit

_ZNK5boost10shared_ptrIN8QuantLib13PricingEngineEEptEv.exit: ; preds = %_ZN8QuantLib11SimpleQuote8setValueEd.exit, %cond.false.i7
  %7 = phi ptr [ %6, %_ZN8QuantLib11SimpleQuote8setValueEd.exit ], [ %.pre.i8, %cond.false.i7 ]
  %vtable7 = load ptr, ptr %7, align 8, !tbaa !33
  %vfn8 = getelementptr inbounds i8, ptr %vtable7, i64 40
  %8 = load ptr, ptr %vfn8, align 8
  tail call void %8(ptr noundef nonnull align 8 dereferenceable(56) %7)
  br label %if.end

if.end:                                           ; preds = %_ZNK5boost10shared_ptrIN8QuantLib13PricingEngineEEptEv.exit, %_ZNK5boost10shared_ptrIN8QuantLib11SimpleQuoteEEptEv.exit
  %results_ = getelementptr inbounds nuw i8, ptr %this, i64 56
  %9 = load ptr, ptr %results_, align 8, !tbaa !125
  %value = getelementptr inbounds nuw i8, ptr %9, i64 8
  %10 = load double, ptr %value, align 8, !tbaa !129
  %targetValue_ = getelementptr inbounds nuw i8, ptr %this, i64 32
  %11 = load double, ptr %targetValue_, align 8, !tbaa !111
  %sub = fsub double %10, %11
  ret double %sub
}